target datalayout = "e-m:e-p270:32:32-p271:32:32-p272:64:64-i64:64-i128:128-f80:128-n8:16:32:64-S128"
target triple = "x86_64-pc-linux-gnu"

; Function Attrs: nounwind uwtable
define internal void @pred4x4_128_dc_10_c(ptr noundef %0, ptr noundef %1, i64 noundef %2) #1 {
  %4 = alloca ptr, align 8
  %5 = alloca ptr, align 8
  %6 = alloca i64, align 8
  %7 = alloca ptr, align 8
  %8 = alloca i32, align 4
  %9 = alloca i64, align 8
  store ptr %0, ptr %4, align 8, !tbaa !12
  store ptr %1, ptr %5, align 8, !tbaa !12
  store i64 %2, ptr %6, align 8, !tbaa !14
  call void @llvm.lifetime.start.p0(i64 8, ptr %7) #9
  %10 = load ptr, ptr %4, align 8, !tbaa !12
  store ptr %10, ptr %7, align 8, !tbaa !16
  call void @llvm.lifetime.start.p0(i64 4, ptr %8) #9
  %11 = load i64, ptr %6, align 8, !tbaa !14
  %12 = ashr i64 %11, 1
  %13 = trunc i64 %12 to i32
  store i32 %13, ptr %8, align 4, !tbaa !9
  call void @llvm.lifetime.start.p0(i64 8, ptr %9) #9
  store i64 144117387132666368, ptr %9, align 8, !tbaa !14
  %14 = load ptr, ptr %7, align 8, !tbaa !16
  %15 = load i32, ptr %8, align 4, !tbaa !9
  %16 = mul nsw i32 0, %15
  %17 = sext i32 %16 to i64
  %18 = getelementptr inbounds i16, ptr %14, i64 %17
  store i64 144117387132666368, ptr %18, align 8, !tbaa !18
  %19 = load ptr, ptr %7, align 8, !tbaa !16
  %20 = load i32, ptr %8, align 4, !tbaa !9
  %21 = mul nsw i32 1, %20
  %22 = sext i32 %21 to i64
  %23 = getelementptr inbounds i16, ptr %19, i64 %22
  store i64 144117387132666368, ptr %23, align 8, !tbaa !18
  %24 = load ptr, ptr %7, align 8, !tbaa !16
  %25 = load i32, ptr %8, align 4, !tbaa !9
  %26 = mul nsw i32 2, %25
  %27 = sext i32 %26 to i64
  %28 = getelementptr inbounds i16, ptr %24, i64 %27
  store i64 144117387132666368, ptr %28, align 8, !tbaa !18
  %29 = load ptr, ptr %7, align 8, !tbaa !16
  %30 = load i32, ptr %8, align 4, !tbaa !9
  %31 = mul nsw i32 3, %30
  %32 = sext i32 %31 to i64
  %33 = getelementptr inbounds i16, ptr %29, i64 %32
  store i64 144117387132666368, ptr %33, align 8, !tbaa !18
  call void @llvm.lifetime.end.p0(i64 8, ptr %9) #9
  call void @llvm.lifetime.end.p0(i64 4, ptr %8) #9
  call void @llvm.lifetime.end.p0(i64 8, ptr %7) #9
  ret void
}