; Function Attrs: mustprogress nofree norecurse nosync nounwind willreturn memory(argmem: write) uwtable
define internal void @pred4x4_128_dc_10_c(ptr noundef writeonly captures(none) initializes((0, 8)) %0, ptr readnone captures(none) %1, i64 noundef %2) #2 {
  %4 = lshr i64 %2, 1
  %5 = trunc i64 %4 to i32
  store i64 144117387132666368, ptr %0, align 8, !tbaa !8
  %sext = shl i64 %4, 32
  %6 = ashr exact i64 %sext, 31
  %7 = getelementptr inbounds i8, ptr %0, i64 %6
  store i64 144117387132666368, ptr %7, align 8, !tbaa !8
  %8 = shl nsw i32 %5, 1
  %9 = sext i32 %8 to i64
  %10 = getelementptr inbounds i16, ptr %0, i64 %9
  store i64 144117387132666368, ptr %10, align 8, !tbaa !8
  %sext9 = mul i64 %4, 12884901888
  %11 = ashr exact i64 %sext9, 31
  %12 = getelementptr inbounds i8, ptr %0, i64 %11
  store i64 144117387132666368, ptr %12, align 8, !tbaa !8
  ret void
}